target datalayout = "e-m:e-p270:32:32-p271:32:32-p272:64:64-i64:64-i128:128-f80:128-n8:16:32:64-S128"
target triple = "x86_64-pc-linux-gnu"

; Function Attrs: nounwind uwtable
define internal void @diag_downright_4x4_c(ptr noundef %0, i64 noundef %1, ptr noundef %2, ptr noundef %3) #1 {
  %5 = alloca ptr, align 8
  %6 = alloca i64, align 8
  %7 = alloca ptr, align 8
  %8 = alloca ptr, align 8
  %9 = alloca ptr, align 8
  %10 = alloca ptr, align 8
  %11 = alloca ptr, align 8
  %12 = alloca i32, align 4
  %13 = alloca i32, align 4
  %14 = alloca i32, align 4
  %15 = alloca i32, align 4
  %16 = alloca i32, align 4
  %17 = alloca i32, align 4
  %18 = alloca i32, align 4
  %19 = alloca i32, align 4
  %20 = alloca i32, align 4
  store ptr %0, ptr %5, align 8, !tbaa !10
  store i64 %1, ptr %6, align 8, !tbaa !12
  store ptr %2, ptr %7, align 8, !tbaa !10
  store ptr %3, ptr %8, align 8, !tbaa !10
  call void @llvm.lifetime.start.p0(i64 8, ptr %9) #10
  %21 = load ptr, ptr %5, align 8, !tbaa !10
  store ptr %21, ptr %9, align 8, !tbaa !10
  call void @llvm.lifetime.start.p0(i64 8, ptr %10) #10
  %22 = load ptr, ptr %8, align 8, !tbaa !10
  store ptr %22, ptr %10, align 8, !tbaa !10
  call void @llvm.lifetime.start.p0(i64 8, ptr %11) #10
  %23 = load ptr, ptr %7, align 8, !tbaa !10
  store ptr %23, ptr %11, align 8, !tbaa !10
  call void @llvm.lifetime.start.p0(i64 4, ptr %12) #10
  %24 = load ptr, ptr %10, align 8, !tbaa !10
  %25 = getelementptr inbounds i8, ptr %24, i64 -1
  %26 = load i8, ptr %25, align 1, !tbaa !14
  %27 = zext i8 %26 to i32
  store i32 %27, ptr %12, align 4, !tbaa !15
  call void @llvm.lifetime.start.p0(i64 4, ptr %13) #10
  %28 = load ptr, ptr %10, align 8, !tbaa !10
  %29 = getelementptr inbounds i8, ptr %28, i64 0
  %30 = load i8, ptr %29, align 1, !tbaa !14
  %31 = zext i8 %30 to i32
  store i32 %31, ptr %13, align 4, !tbaa !15
  call void @llvm.lifetime.start.p0(i64 4, ptr %14) #10
  %32 = load ptr, ptr %10, align 8, !tbaa !10
  %33 = getelementptr inbounds i8, ptr %32, i64 1
  %34 = load i8, ptr %33, align 1, !tbaa !14
  %35 = zext i8 %34 to i32
  store i32 %35, ptr %14, align 4, !tbaa !15
  call void @llvm.lifetime.start.p0(i64 4, ptr %15) #10
  %36 = load ptr, ptr %10, align 8, !tbaa !10
  %37 = getelementptr inbounds i8, ptr %36, i64 2
  %38 = load i8, ptr %37, align 1, !tbaa !14
  %39 = zext i8 %38 to i32
  store i32 %39, ptr %15, align 4, !tbaa !15
  call void @llvm.lifetime.start.p0(i64 4, ptr %16) #10
  %40 = load ptr, ptr %10, align 8, !tbaa !10
  %41 = getelementptr inbounds i8, ptr %40, i64 3
  %42 = load i8, ptr %41, align 1, !tbaa !14
  %43 = zext i8 %42 to i32
  store i32 %43, ptr %16, align 4, !tbaa !15
  call void @llvm.lifetime.start.p0(i64 4, ptr %17) #10
  %44 = load ptr, ptr %11, align 8, !tbaa !10
  %45 = getelementptr inbounds i8, ptr %44, i64 3
  %46 = load i8, ptr %45, align 1, !tbaa !14
  %47 = zext i8 %46 to i32
  store i32 %47, ptr %17, align 4, !tbaa !15
  call void @llvm.lifetime.start.p0(i64 4, ptr %18) #10
  %48 = load ptr, ptr %11, align 8, !tbaa !10
  %49 = getelementptr inbounds i8, ptr %48, i64 2
  %50 = load i8, ptr %49, align 1, !tbaa !14
  %51 = zext i8 %50 to i32
  store i32 %51, ptr %18, align 4, !tbaa !15
  call void @llvm.lifetime.start.p0(i64 4, ptr %19) #10
  %52 = load ptr, ptr %11, align 8, !tbaa !10
  %53 = getelementptr inbounds i8, ptr %52, i64 1
  %54 = load i8, ptr %53, align 1, !tbaa !14
  %55 = zext i8 %54 to i32
  store i32 %55, ptr %19, align 4, !tbaa !15
  call void @llvm.lifetime.start.p0(i64 4, ptr %20) #10
  %56 = load ptr, ptr %11, align 8, !tbaa !10
  %57 = getelementptr inbounds i8, ptr %56, i64 0
  %58 = load i8, ptr %57, align 1, !tbaa !14
  %59 = zext i8 %58 to i32
  store i32 %59, ptr %20, align 4, !tbaa !15
  %60 = load i64, ptr %6, align 8, !tbaa !12
  %61 = udiv i64 %60, 1
  store i64 %61, ptr %6, align 8, !tbaa !12
  %62 = load i32, ptr %18, align 4, !tbaa !15
  %63 = load i32, ptr %19, align 4, !tbaa !15
  %64 = mul nsw i32 %63, 2
  %65 = add nsw i32 %62, %64
  %66 = load i32, ptr %20, align 4, !tbaa !15
  %67 = add nsw i32 %65, %66
  %68 = add nsw i32 %67, 2
  %69 = ashr i32 %68, 2
  %70 = trunc i32 %69 to i8
  %71 = load ptr, ptr %9, align 8, !tbaa !10
  %72 = load i64, ptr %6, align 8, !tbaa !12
  %73 = mul nsw i64 3, %72
  %74 = add nsw i64 0, %73
  %75 = getelementptr inbounds i8, ptr %71, i64 %74
  store i8 %70, ptr %75, align 1, !tbaa !14
  %76 = load i32, ptr %17, align 4, !tbaa !15
  %77 = load i32, ptr %18, align 4, !tbaa !15
  %78 = mul nsw i32 %77, 2
  %79 = add nsw i32 %76, %78
  %80 = load i32, ptr %19, align 4, !tbaa !15
  %81 = add nsw i32 %79, %80
  %82 = add nsw i32 %81, 2
  %83 = ashr i32 %82, 2
  %84 = trunc i32 %83 to i8
  %85 = load ptr, ptr %9, align 8, !tbaa !10
  %86 = load i64, ptr %6, align 8, !tbaa !12
  %87 = mul nsw i64 3, %86
  %88 = add nsw i64 1, %87
  %89 = getelementptr inbounds i8, ptr %85, i64 %88
  store i8 %84, ptr %89, align 1, !tbaa !14
  %90 = load ptr, ptr %9, align 8, !tbaa !10
  %91 = load i64, ptr %6, align 8, !tbaa !12
  %92 = mul nsw i64 2, %91
  %93 = add nsw i64 0, %92
  %94 = getelementptr inbounds i8, ptr %90, i64 %93
  store i8 %84, ptr %94, align 1, !tbaa !14
  %95 = load i32, ptr %12, align 4, !tbaa !15
  %96 = load i32, ptr %17, align 4, !tbaa !15
  %97 = mul nsw i32 %96, 2
  %98 = add nsw i32 %95, %97
  %99 = load i32, ptr %18, align 4, !tbaa !15
  %100 = add nsw i32 %98, %99
  %101 = add nsw i32 %100, 2
  %102 = ashr i32 %101, 2
  %103 = trunc i32 %102 to i8
  %104 = load ptr, ptr %9, align 8, !tbaa !10
  %105 = load i64, ptr %6, align 8, !tbaa !12
  %106 = mul nsw i64 3, %105
  %107 = add nsw i64 2, %106
  %108 = getelementptr inbounds i8, ptr %104, i64 %107
  store i8 %103, ptr %108, align 1, !tbaa !14
  %109 = load ptr, ptr %9, align 8, !tbaa !10
  %110 = load i64, ptr %6, align 8, !tbaa !12
  %111 = mul nsw i64 2, %110
  %112 = add nsw i64 1, %111
  %113 = getelementptr inbounds i8, ptr %109, i64 %112
  store i8 %103, ptr %113, align 1, !tbaa !14
  %114 = load ptr, ptr %9, align 8, !tbaa !10
  %115 = load i64, ptr %6, align 8, !tbaa !12
  %116 = mul nsw i64 1, %115
  %117 = add nsw i64 0, %116
  %118 = getelementptr inbounds i8, ptr %114, i64 %117
  store i8 %103, ptr %118, align 1, !tbaa !14
  %119 = load i32, ptr %17, align 4, !tbaa !15
  %120 = load i32, ptr %12, align 4, !tbaa !15
  %121 = mul nsw i32 %120, 2
  %122 = add nsw i32 %119, %121
  %123 = load i32, ptr %13, align 4, !tbaa !15
  %124 = add nsw i32 %122, %123
  %125 = add nsw i32 %124, 2
  %126 = ashr i32 %125, 2
  %127 = trunc i32 %126 to i8
  %128 = load ptr, ptr %9, align 8, !tbaa !10
  %129 = load i64, ptr %6, align 8, !tbaa !12
  %130 = mul nsw i64 3, %129
  %131 = add nsw i64 3, %130
  %132 = getelementptr inbounds i8, ptr %128, i64 %131
  store i8 %127, ptr %132, align 1, !tbaa !14
  %133 = load ptr, ptr %9, align 8, !tbaa !10
  %134 = load i64, ptr %6, align 8, !tbaa !12
  %135 = mul nsw i64 2, %134
  %136 = add nsw i64 2, %135
  %137 = getelementptr inbounds i8, ptr %133, i64 %136
  store i8 %127, ptr %137, align 1, !tbaa !14
  %138 = load ptr, ptr %9, align 8, !tbaa !10
  %139 = load i64, ptr %6, align 8, !tbaa !12
  %140 = mul nsw i64 1, %139
  %141 = add nsw i64 1, %140
  %142 = getelementptr inbounds i8, ptr %138, i64 %141
  store i8 %127, ptr %142, align 1, !tbaa !14
  %143 = load ptr, ptr %9, align 8, !tbaa !10
  %144 = load i64, ptr %6, align 8, !tbaa !12
  %145 = mul nsw i64 0, %144
  %146 = add nsw i64 0, %145
  %147 = getelementptr inbounds i8, ptr %143, i64 %146
  store i8 %127, ptr %147, align 1, !tbaa !14
  %148 = load i32, ptr %12, align 4, !tbaa !15
  %149 = load i32, ptr %13, align 4, !tbaa !15
  %150 = mul nsw i32 %149, 2
  %151 = add nsw i32 %148, %150
  %152 = load i32, ptr %14, align 4, !tbaa !15
  %153 = add nsw i32 %151, %152
  %154 = add nsw i32 %153, 2
  %155 = ashr i32 %154, 2
  %156 = trunc i32 %155 to i8
  %157 = load ptr, ptr %9, align 8, !tbaa !10
  %158 = load i64, ptr %6, align 8, !tbaa !12
  %159 = mul nsw i64 2, %158
  %160 = add nsw i64 3, %159
  %161 = getelementptr inbounds i8, ptr %157, i64 %160
  store i8 %156, ptr %161, align 1, !tbaa !14
  %162 = load ptr, ptr %9, align 8, !tbaa !10
  %163 = load i64, ptr %6, align 8, !tbaa !12
  %164 = mul nsw i64 1, %163
  %165 = add nsw i64 2, %164
  %166 = getelementptr inbounds i8, ptr %162, i64 %165
  store i8 %156, ptr %166, align 1, !tbaa !14
  %167 = load ptr, ptr %9, align 8, !tbaa !10
  %168 = load i64, ptr %6, align 8, !tbaa !12
  %169 = mul nsw i64 0, %168
  %170 = add nsw i64 1, %169
  %171 = getelementptr inbounds i8, ptr %167, i64 %170
  store i8 %156, ptr %171, align 1, !tbaa !14
  %172 = load i32, ptr %13, align 4, !tbaa !15
  %173 = load i32, ptr %14, align 4, !tbaa !15
  %174 = mul nsw i32 %173, 2
  %175 = add nsw i32 %172, %174
  %176 = load i32, ptr %15, align 4, !tbaa !15
  %177 = add nsw i32 %175, %176
  %178 = add nsw i32 %177, 2
  %179 = ashr i32 %178, 2
  %180 = trunc i32 %179 to i8
  %181 = load ptr, ptr %9, align 8, !tbaa !10
  %182 = load i64, ptr %6, align 8, !tbaa !12
  %183 = mul nsw i64 1, %182
  %184 = add nsw i64 3, %183
  %185 = getelementptr inbounds i8, ptr %181, i64 %184
  store i8 %180, ptr %185, align 1, !tbaa !14
  %186 = load ptr, ptr %9, align 8, !tbaa !10
  %187 = load i64, ptr %6, align 8, !tbaa !12
  %188 = mul nsw i64 0, %187
  %189 = add nsw i64 2, %188
  %190 = getelementptr inbounds i8, ptr %186, i64 %189
  store i8 %180, ptr %190, align 1, !tbaa !14
  %191 = load i32, ptr %14, align 4, !tbaa !15
  %192 = load i32, ptr %15, align 4, !tbaa !15
  %193 = mul nsw i32 %192, 2
  %194 = add nsw i32 %191, %193
  %195 = load i32, ptr %16, align 4, !tbaa !15
  %196 = add nsw i32 %194, %195
  %197 = add nsw i32 %196, 2
  %198 = ashr i32 %197, 2
  %199 = trunc i32 %198 to i8
  %200 = load ptr, ptr %9, align 8, !tbaa !10
  %201 = load i64, ptr %6, align 8, !tbaa !12
  %202 = mul nsw i64 0, %201
  %203 = add nsw i64 3, %202
  %204 = getelementptr inbounds i8, ptr %200, i64 %203
  store i8 %199, ptr %204, align 1, !tbaa !14
  call void @llvm.lifetime.end.p0(i64 4, ptr %20) #10
  call void @llvm.lifetime.end.p0(i64 4, ptr %19) #10
  call void @llvm.lifetime.end.p0(i64 4, ptr %18) #10
  call void @llvm.lifetime.end.p0(i64 4, ptr %17) #10
  call void @llvm.lifetime.end.p0(i64 4, ptr %16) #10
  call void @llvm.lifetime.end.p0(i64 4, ptr %15) #10
  call void @llvm.lifetime.end.p0(i64 4, ptr %14) #10
  call void @llvm.lifetime.end.p0(i64 4, ptr %13) #10
  call void @llvm.lifetime.end.p0(i64 4, ptr %12) #10
  call void @llvm.lifetime.end.p0(i64 8, ptr %11) #10
  call void @llvm.lifetime.end.p0(i64 8, ptr %10) #10
  call void @llvm.lifetime.end.p0(i64 8, ptr %9) #10
  ret void
}