; Function Attrs: mustprogress nofree norecurse nosync nounwind willreturn memory(argmem: readwrite) uwtable
define internal void @diag_downright_4x4_c(ptr noundef writeonly captures(none) initializes((0, 4)) %0, i64 noundef %1, ptr noundef readonly captures(none) %2, ptr noundef readonly captures(none) %3) #1 {
  %5 = getelementptr inbounds i8, ptr %3, i64 -1
  %6 = load i8, ptr %5, align 1, !tbaa !8
  %7 = zext i8 %6 to i32
  %8 = load i8, ptr %3, align 1, !tbaa !8
  %9 = zext i8 %8 to i32
  %10 = getelementptr inbounds nuw i8, ptr %3, i64 1
  %11 = load i8, ptr %10, align 1, !tbaa !8
  %12 = zext i8 %11 to i32
  %13 = getelementptr inbounds nuw i8, ptr %3, i64 2
  %14 = load i8, ptr %13, align 1, !tbaa !8
  %15 = zext i8 %14 to i32
  %16 = getelementptr inbounds nuw i8, ptr %3, i64 3
  %17 = load i8, ptr %16, align 1, !tbaa !8
  %18 = zext i8 %17 to i32
  %19 = getelementptr inbounds nuw i8, ptr %2, i64 3
  %20 = load i8, ptr %19, align 1, !tbaa !8
  %21 = zext i8 %20 to i32
  %22 = getelementptr inbounds nuw i8, ptr %2, i64 2
  %23 = load i8, ptr %22, align 1, !tbaa !8
  %24 = zext i8 %23 to i32
  %25 = getelementptr inbounds nuw i8, ptr %2, i64 1
  %26 = load i8, ptr %25, align 1, !tbaa !8
  %27 = zext i8 %26 to i32
  %28 = load i8, ptr %2, align 1, !tbaa !8
  %29 = zext i8 %28 to i32
  %30 = shl nuw nsw i32 %27, 1
  %31 = add nuw nsw i32 %24, 2
  %32 = add nuw nsw i32 %31, %30
  %33 = add nuw nsw i32 %32, %29
  %34 = lshr i32 %33, 2
  %35 = trunc nuw i32 %34 to i8
  %36 = mul nsw i64 %1, 3
  %37 = getelementptr inbounds i8, ptr %0, i64 %36
  store i8 %35, ptr %37, align 1, !tbaa !8
  %38 = shl nuw nsw i32 %24, 1
  %39 = add nuw nsw i32 %21, 2
  %40 = add nuw nsw i32 %39, %38
  %41 = add nuw nsw i32 %40, %27
  %42 = lshr i32 %41, 2
  %43 = trunc nuw i32 %42 to i8
  %44 = getelementptr i8, ptr %37, i64 1
  store i8 %43, ptr %44, align 1, !tbaa !8
  %45 = shl nsw i64 %1, 1
  %46 = getelementptr inbounds i8, ptr %0, i64 %45
  store i8 %43, ptr %46, align 1, !tbaa !8
  %47 = shl nuw nsw i32 %21, 1
  %48 = add nuw nsw i32 %7, 2
  %49 = add nuw nsw i32 %48, %47
  %50 = add nuw nsw i32 %49, %24
  %51 = lshr i32 %50, 2
  %52 = trunc nuw i32 %51 to i8
  %53 = getelementptr i8, ptr %37, i64 2
  store i8 %52, ptr %53, align 1, !tbaa !8
  %54 = getelementptr i8, ptr %46, i64 1
  store i8 %52, ptr %54, align 1, !tbaa !8
  %55 = getelementptr inbounds i8, ptr %0, i64 %1
  store i8 %52, ptr %55, align 1, !tbaa !8
  %56 = shl nuw nsw i32 %7, 1
  %57 = add nuw nsw i32 %9, 2
  %58 = add nuw nsw i32 %57, %56
  %59 = add nuw nsw i32 %58, %21
  %60 = lshr i32 %59, 2
  %61 = trunc nuw i32 %60 to i8
  %62 = getelementptr i8, ptr %37, i64 3
  store i8 %61, ptr %62, align 1, !tbaa !8
  %63 = getelementptr i8, ptr %46, i64 2
  store i8 %61, ptr %63, align 1, !tbaa !8
  %64 = getelementptr i8, ptr %55, i64 1
  store i8 %61, ptr %64, align 1, !tbaa !8
  store i8 %61, ptr %0, align 1, !tbaa !8
  %65 = shl nuw nsw i32 %9, 1
  %66 = add nuw nsw i32 %48, %65
  %67 = add nuw nsw i32 %66, %12
  %68 = lshr i32 %67, 2
  %69 = trunc nuw i32 %68 to i8
  %70 = getelementptr i8, ptr %46, i64 3
  store i8 %69, ptr %70, align 1, !tbaa !8
  %71 = getelementptr i8, ptr %55, i64 2
  store i8 %69, ptr %71, align 1, !tbaa !8
  %72 = getelementptr inbounds nuw i8, ptr %0, i64 1
  store i8 %69, ptr %72, align 1, !tbaa !8
  %73 = shl nuw nsw i32 %12, 1
  %74 = add nuw nsw i32 %57, %73
  %75 = add nuw nsw i32 %74, %15
  %76 = lshr i32 %75, 2
  %77 = trunc nuw i32 %76 to i8
  %78 = getelementptr i8, ptr %55, i64 3
  store i8 %77, ptr %78, align 1, !tbaa !8
  %79 = getelementptr inbounds nuw i8, ptr %0, i64 2
  store i8 %77, ptr %79, align 1, !tbaa !8
  %80 = shl nuw nsw i32 %15, 1
  %81 = add nuw nsw i32 %12, 2
  %82 = add nuw nsw i32 %81, %80
  %83 = add nuw nsw i32 %82, %18
  %84 = lshr i32 %83, 2
  %85 = trunc nuw i32 %84 to i8
  %86 = getelementptr inbounds nuw i8, ptr %0, i64 3
  store i8 %85, ptr %86, align 1, !tbaa !8
  ret void
}